target datalayout = "e-m:e-p270:32:32-p271:32:32-p272:64:64-i64:64-i128:128-f80:128-n8:16:32:64-S128"
target triple = "x86_64-pc-linux-gnu"

%struct.URLContext = type { ptr, ptr, ptr, ptr, i32, i32, i32, i32, %struct.AVIOInterruptCB, i64, ptr, ptr, i32 }
%struct.AVIOInterruptCB = type { ptr, ptr }
%struct.CacheContext = type { ptr, i32, ptr, ptr, i64, i64, i64, i64, i32, ptr, i64, i64, i32 }

@.str.1 = private unnamed_addr constant [7 x i8] c"cache:\00", align 1
@.str.2 = private unnamed_addr constant [8 x i8] c"ffcache\00", align 1
@.str.3 = private unnamed_addr constant [27 x i8] c"Failed to create tempfile\0A\00", align 1

; Function Attrs: nounwind uwtable
define internal i32 @cache_open(ptr noundef %0, ptr noundef %1, i32 noundef %2, ptr noundef %3) #0 {
  %5 = alloca i32, align 4
  %6 = alloca ptr, align 8
  %7 = alloca ptr, align 8
  %8 = alloca i32, align 4
  %9 = alloca ptr, align 8
  %10 = alloca ptr, align 8
  %11 = alloca i32, align 4
  %12 = alloca ptr, align 8
  %13 = alloca i32, align 4
  store ptr %0, ptr %6, align 8, !tbaa !4
  store ptr %1, ptr %7, align 8, !tbaa !9
  store i32 %2, ptr %8, align 4, !tbaa !11
  store ptr %3, ptr %9, align 8, !tbaa !13
  call void @llvm.lifetime.start.p0(i64 8, ptr %10) #8
  %14 = load ptr, ptr %6, align 8, !tbaa !4
  %15 = getelementptr inbounds nuw %struct.URLContext, ptr %14, i32 0, i32 2
  %16 = load ptr, ptr %15, align 8, !tbaa !16
  store ptr %16, ptr %10, align 8, !tbaa !22
  call void @llvm.lifetime.start.p0(i64 4, ptr %11) #8
  call void @llvm.lifetime.start.p0(i64 8, ptr %12) #8
  %17 = load ptr, ptr %7, align 8, !tbaa !9
  %18 = call i32 @av_strstart(ptr noundef %17, ptr noundef @.str.1, ptr noundef %7)
  %19 = load ptr, ptr %6, align 8, !tbaa !4
  %20 = call i32 @avpriv_tempfile(ptr noundef @.str.2, ptr noundef %12, i32 noundef 0, ptr noundef %19)
  %21 = load ptr, ptr %10, align 8, !tbaa !22
  %22 = getelementptr inbounds nuw %struct.CacheContext, ptr %21, i32 0, i32 1
  store i32 %20, ptr %22, align 8, !tbaa !24
  %23 = load ptr, ptr %10, align 8, !tbaa !22
  %24 = getelementptr inbounds nuw %struct.CacheContext, ptr %23, i32 0, i32 1
  %25 = load i32, ptr %24, align 8, !tbaa !24
  %26 = icmp slt i32 %25, 0
  br i1 %26, label %27, label %32

27:                                               ; preds = %4
  %28 = load ptr, ptr %6, align 8, !tbaa !4
  call void (ptr, i32, ptr, ...) @av_log(ptr noundef %28, i32 noundef 16, ptr noundef @.str.3)
  %29 = load ptr, ptr %10, align 8, !tbaa !22
  %30 = getelementptr inbounds nuw %struct.CacheContext, ptr %29, i32 0, i32 1
  %31 = load i32, ptr %30, align 8, !tbaa !24
  store i32 %31, ptr %5, align 4
  store i32 1, ptr %13, align 4
  br label %58

32:                                               ; preds = %4
  %33 = load ptr, ptr %12, align 8, !tbaa !9
  %34 = call i32 @unlink(ptr noundef %33) #8
  store i32 %34, ptr %11, align 4, !tbaa !11
  %35 = load i32, ptr %11, align 4, !tbaa !11
  %36 = icmp sge i32 %35, 0
  br i1 %36, label %37, label %38

37:                                               ; preds = %32
  call void @av_freep(ptr noundef %12)
  br label %42

38:                                               ; preds = %32
  %39 = load ptr, ptr %12, align 8, !tbaa !9
  %40 = load ptr, ptr %10, align 8, !tbaa !22
  %41 = getelementptr inbounds nuw %struct.CacheContext, ptr %40, i32 0, i32 2
  store ptr %39, ptr %41, align 8, !tbaa !27
  br label %42

42:                                               ; preds = %38, %37
  %43 = load ptr, ptr %10, align 8, !tbaa !22
  %44 = getelementptr inbounds nuw %struct.CacheContext, ptr %43, i32 0, i32 9
  %45 = load ptr, ptr %7, align 8, !tbaa !9
  %46 = load i32, ptr %8, align 4, !tbaa !11
  %47 = load ptr, ptr %6, align 8, !tbaa !4
  %48 = getelementptr inbounds nuw %struct.URLContext, ptr %47, i32 0, i32 8
  %49 = load ptr, ptr %9, align 8, !tbaa !13
  %50 = load ptr, ptr %6, align 8, !tbaa !4
  %51 = getelementptr inbounds nuw %struct.URLContext, ptr %50, i32 0, i32 10
  %52 = load ptr, ptr %51, align 8, !tbaa !28
  %53 = load ptr, ptr %6, align 8, !tbaa !4
  %54 = getelementptr inbounds nuw %struct.URLContext, ptr %53, i32 0, i32 11
  %55 = load ptr, ptr %54, align 8, !tbaa !29
  %56 = load ptr, ptr %6, align 8, !tbaa !4
  %57 = call i32 @ffurl_open_whitelist(ptr noundef %44, ptr noundef %45, i32 noundef %46, ptr noundef %48, ptr noundef %49, ptr noundef %52, ptr noundef %55, ptr noundef %56)
  store i32 %57, ptr %5, align 4
  store i32 1, ptr %13, align 4
  br label %58

58:                                               ; preds = %42, %27
  call void @llvm.lifetime.end.p0(i64 8, ptr %12) #8
  call void @llvm.lifetime.end.p0(i64 4, ptr %11) #8
  call void @llvm.lifetime.end.p0(i64 8, ptr %10) #8
  %59 = load i32, ptr %5, align 4
  ret i32 %59
}