; Function Attrs: nounwind uwtable
define internal i32 @cache_open(ptr noundef %0, ptr noundef %1, i32 noundef %2, ptr noundef %3) #0 {
  %5 = alloca ptr, align 8
  %6 = alloca ptr, align 8
  store ptr %1, ptr %5, align 8, !tbaa !4
  %7 = getelementptr inbounds nuw i8, ptr %0, i64 16
  %8 = load ptr, ptr %7, align 8, !tbaa !9
  call void @llvm.lifetime.start.p0(i64 8, ptr nonnull %6) #10
  %9 = call i32 @av_strstart(ptr noundef %1, ptr noundef nonnull @.str.1, ptr noundef nonnull %5) #10
  %10 = call i32 @avpriv_tempfile(ptr noundef nonnull @.str.2, ptr noundef nonnull %6, i32 noundef 0, ptr noundef %0) #10
  %11 = getelementptr inbounds nuw i8, ptr %8, i64 8
  store i32 %10, ptr %11, align 8, !tbaa !16
  %12 = icmp slt i32 %10, 0
  br i1 %12, label %13, label %15

13:                                               ; preds = %4
  call void (ptr, i32, ptr, ...) @av_log(ptr noundef nonnull %0, i32 noundef 16, ptr noundef nonnull @.str.3) #10
  %14 = load i32, ptr %11, align 8, !tbaa !16
  br label %32

15:                                               ; preds = %4
  %16 = load ptr, ptr %6, align 8, !tbaa !4
  %17 = call i32 @unlink(ptr noundef %16) #10
  %18 = icmp sgt i32 %17, -1
  br i1 %18, label %19, label %20

19:                                               ; preds = %15
  call void @av_freep(ptr noundef nonnull %6) #10
  br label %23

20:                                               ; preds = %15
  %21 = load ptr, ptr %6, align 8, !tbaa !4
  %22 = getelementptr inbounds nuw i8, ptr %8, i64 16
  store ptr %21, ptr %22, align 8, !tbaa !20
  br label %23

23:                                               ; preds = %20, %19
  %24 = getelementptr inbounds nuw i8, ptr %8, i64 72
  %25 = load ptr, ptr %5, align 8, !tbaa !4
  %26 = getelementptr inbounds nuw i8, ptr %0, i64 48
  %27 = getelementptr inbounds nuw i8, ptr %0, i64 72
  %28 = load ptr, ptr %27, align 8, !tbaa !21
  %29 = getelementptr inbounds nuw i8, ptr %0, i64 80
  %30 = load ptr, ptr %29, align 8, !tbaa !22
  %31 = call i32 @ffurl_open_whitelist(ptr noundef nonnull %24, ptr noundef %25, i32 noundef %2, ptr noundef nonnull %26, ptr noundef %3, ptr noundef %28, ptr noundef %30, ptr noundef nonnull %0) #10
  br label %32

32:                                               ; preds = %23, %13
  %.0 = phi i32 [ %14, %13 ], [ %31, %23 ]
  call void @llvm.lifetime.end.p0(i64 8, ptr nonnull %6) #10
  ret i32 %.0
}